; Function Attrs: mustprogress uwtable
define i64 @_ZNK3net30QuicMultipathSentPacketManager21GetRetransmissionTimeEv(ptr noundef nonnull readonly align 8 captures(none) dereferenceable(40) %0) unnamed_addr #0 align 2 {
  %2 = alloca %"struct.net::QuicMultipathSentPacketManager::PathSentPacketManagerInfo", align 8
  %3 = getelementptr inbounds nuw i8, ptr %0, i64 8
  %4 = load ptr, ptr %3, align 8, !tbaa !20
  %5 = getelementptr inbounds nuw i8, ptr %0, i64 16
  %6 = load ptr, ptr %5, align 8, !tbaa !20
  %.not17 = icmp eq ptr %4, %6
  br i1 %.not17, label %._crit_edge, label %.lr.ph

.lr.ph:                                           ; preds = %1
  %7 = getelementptr inbounds nuw i8, ptr %2, i64 8
  br label %8

._crit_edge:                                      ; preds = %21, %1
  %.sroa.012.0.lcssa = phi i64 [ 0, %1 ], [ %.sroa.012.1, %21 ]
  ret i64 %.sroa.012.0.lcssa

8:                                                ; preds = %.lr.ph, %21
  %.sroa.012.019 = phi i64 [ 0, %.lr.ph ], [ %.sroa.012.1, %21 ]
  %.sroa.09.018 = phi ptr [ %4, %.lr.ph ], [ %22, %21 ]
  call void @llvm.lifetime.start.p0(i64 16, ptr nonnull %2) #17
  call void @_ZN3net30QuicMultipathSentPacketManager25PathSentPacketManagerInfoC1ERKS1_(ptr noundef nonnull align 8 dereferenceable(12) %2, ptr noundef nonnull align 8 dereferenceable(12) %.sroa.09.018)
  %9 = load ptr, ptr %2, align 8, !tbaa !21
  %10 = icmp eq ptr %9, null
  %11 = load i32, ptr %7, align 8
  %12 = icmp ne i32 %11, 0
  %or.cond = select i1 %10, i1 true, i1 %12
  br i1 %or.cond, label %21, label %13

13:                                               ; preds = %8
  %14 = load ptr, ptr %9, align 8, !tbaa !3
  %15 = getelementptr inbounds nuw i8, ptr %14, i64 144
  %16 = load ptr, ptr %15, align 8
  %17 = call i64 %16(ptr noundef nonnull align 8 dereferenceable(8) %9)
  %.not16 = icmp eq i64 %17, 0
  br i1 %.not16, label %21, label %18

18:                                               ; preds = %13
  %19 = icmp eq i64 %.sroa.012.019, 0
  %20 = call i64 @llvm.smin.i64(i64 %17, i64 %.sroa.012.019)
  %spec.select = select i1 %19, i64 %17, i64 %20
  br label %21

21:                                               ; preds = %18, %13, %8
  %.sroa.012.1 = phi i64 [ %.sroa.012.019, %8 ], [ %.sroa.012.019, %13 ], [ %spec.select, %18 ]
  call void @llvm.lifetime.end.p0(i64 16, ptr nonnull %2) #17
  %22 = getelementptr inbounds nuw i8, ptr %.sroa.09.018, i64 16
  %.not = icmp eq ptr %22, %6
  br i1 %.not, label %._crit_edge, label %8
}